target datalayout = "e-m:e-p270:32:32-p271:32:32-p272:64:64-i64:64-i128:128-f80:128-n8:16:32:64-S128"
target triple = "x86_64-pc-linux-gnu"

; Function Attrs: mustprogress nounwind uwtable
define hidden noundef zeroext i1 @_ZN4cvc58internal6theory7strings5utils12isRegExpKindENS0_4kind6Kind_tE(i32 noundef %0) #4 {
  %2 = alloca i32, align 4
  store i32 %0, ptr %2, align 4, !tbaa !30
  %3 = load i32, ptr %2, align 4, !tbaa !30
  %4 = icmp eq i32 %3, 356
  br i1 %4, label %44, label %5

5:                                                ; preds = %1
  %6 = load i32, ptr %2, align 4, !tbaa !30
  %7 = icmp eq i32 %6, 357
  br i1 %7, label %44, label %8

8:                                                ; preds = %5
  %9 = load i32, ptr %2, align 4, !tbaa !30
  %10 = icmp eq i32 %9, 358
  br i1 %10, label %44, label %11

11:                                               ; preds = %8
  %12 = load i32, ptr %2, align 4, !tbaa !30
  %13 = icmp eq i32 %12, 346
  br i1 %13, label %44, label %14

14:                                               ; preds = %11
  %15 = load i32, ptr %2, align 4, !tbaa !30
  %16 = icmp eq i32 %15, 347
  br i1 %16, label %44, label %17

17:                                               ; preds = %14
  %18 = load i32, ptr %2, align 4, !tbaa !30
  %19 = icmp eq i32 %18, 348
  br i1 %19, label %44, label %20

20:                                               ; preds = %17
  %21 = load i32, ptr %2, align 4, !tbaa !30
  %22 = icmp eq i32 %21, 349
  br i1 %22, label %44, label %23

23:                                               ; preds = %20
  %24 = load i32, ptr %2, align 4, !tbaa !30
  %25 = icmp eq i32 %24, 351
  br i1 %25, label %44, label %26

26:                                               ; preds = %23
  %27 = load i32, ptr %2, align 4, !tbaa !30
  %28 = icmp eq i32 %27, 352
  br i1 %28, label %44, label %29

29:                                               ; preds = %26
  %30 = load i32, ptr %2, align 4, !tbaa !30
  %31 = icmp eq i32 %30, 353
  br i1 %31, label %44, label %32

32:                                               ; preds = %29
  %33 = load i32, ptr %2, align 4, !tbaa !30
  %34 = icmp eq i32 %33, 354
  br i1 %34, label %44, label %35

35:                                               ; preds = %32
  %36 = load i32, ptr %2, align 4, !tbaa !30
  %37 = icmp eq i32 %36, 362
  br i1 %37, label %44, label %38

38:                                               ; preds = %35
  %39 = load i32, ptr %2, align 4, !tbaa !30
  %40 = icmp eq i32 %39, 363
  br i1 %40, label %44, label %41

41:                                               ; preds = %38
  %42 = load i32, ptr %2, align 4, !tbaa !30
  %43 = icmp eq i32 %42, 355
  br label %44

44:                                               ; preds = %41, %38, %35, %32, %29, %26, %23, %20, %17, %14, %11, %8, %5, %1
  %45 = phi i1 [ true, %38 ], [ true, %35 ], [ true, %32 ], [ true, %29 ], [ true, %26 ], [ true, %23 ], [ true, %20 ], [ true, %17 ], [ true, %14 ], [ true, %11 ], [ true, %8 ], [ true, %5 ], [ true, %1 ], [ %43, %41 ]
  ret i1 %45
}